Certificate:
    Data:
        Version: 3 (0x2)
        Serial Number: 1 (0x1)
    Signature Algorithm: sha1WithRSAEncryption
        Issuer: C=US, ST=Unset, L=Unset, O=Unset, CN=www.example.com
        Validity
            Not Before: May 23 15:07:08 2013 GMT
            Not After : May 21 15:07:08 2023 GMT
        Subject: C=US, ST=Unset, O=Unset, CN=www.example.com
        Subject Public Key Info:
            Public Key Algorithm: rsaEncryption
                Public-Key: (1024 bit)
                Modulus:
                    00:a5:39:a0:4b:4e:7e:6f:4a:db:ae:f2:18:fa:70:
                    dc:08:bd:91:f5:ee:7d:88:1c:b4:ea:a6:e8:8a:11:
                    c6:e7:05:81:8f:7c:f5:cb:64:ca:96:df:fa:3e:10:
                    2f:42:53:3c:aa:5b:16:19:a7:c6:04:47:f3:37:2b:
                    5b:6e:16:b5:11:a9:84:79:17:8a:f2:f2:1a:d2:72:
                    68:45:25:e5:14:b6:d4:bb:95:e9:8a:bb:ff:b9:e7:
                    3e:36:7c:4b:9f:af:05:18:34:49:9c:a0:8b:05:2a:
                    8a:94:b3:c2:08:f9:da:20:87:c2:bd:9e:05:0d:95:
                    ed:30:c2:72:bd:7c:63:93:57
                Exponent: 65537 (0x10001)
        X509v3 extensions:
            X509v3 Basic Constraints: 
                CA:FALSE
            X509v3 Subject Key Identifier: 
                BC:3C:F2:4D:FE:BF:9B:F2:98:3F:5D:0F:76:0E:07:47:4B:46:CD:03
            X509v3 Authority Key Identifier: 
                keyid:3C:3F:C3:13:4A:D5:0C:D8:08:96:C6:2C:EC:10:66:21:DB:02:E3:97
                DirName:/C=US/ST=Unset/L=Unset/O=Unset/CN=www.example.com
                serial:EA:D9:01:F0:E8:2F:23:35

    Signature Algorithm: sha1WithRSAEncryption
         8c:1c:aa:a7:73:0b:98:ba:6a:f3:20:6e:61:e7:7a:ea:39:bc:
         8a:b4:f7:a2:5b:df:7d:00:2e:de:a2:0d:87:b5:92:3b:b7:ed:
         89:37:f9:11:70:33:1d:6f:c6:54:23:1a:02:9f:dd:ff:df:16:
         72:21:ca:b8:c2:c0:90:f5:4f:d4:79:05:d5:d3:fa:3a:e8:66:
         07:95:6f:1e:9b:89:b9:36:bd:02:5d:09:c6:7e:d6:2a:eb:93:
         9b:26:3a:64:fc:89:d0:3c:bb:88:49:fa:eb:bc:2b:8e:7e:eb:
         52:30:e7:8e:da:87:47:6b:2d:0d:ac:6e:cc:52:c6:2e:95:ad:
         2c:93
-----BEGIN CERTIFICATE-----
MIICzTCCAjagAwIBAgIBATANBgkqhkiG9w0BAQUFADBXMQswCQYDVQQGEwJVUzEO
MAwGA1UECBMFVW5zZXQxDjAMBgNVBAcTBVVuc2V0MQ4wDAYDVQQKEwVVbnNldDEY
MBYGA1UEAxMPd3d3LmV4YW1wbGUuY29tMB4XDTEzMDUyMzE1MDcwOFoXDTIzMDUy
MTE1MDcwOFowRzELMAkGA1UEBhMCVVMxDjAMBgNVBAgTBVVuc2V0MQ4wDAYDVQQK
EwVVbnNldDEYMBYGA1UEAxMPd3d3LmV4YW1wbGUuY29tMIGfMA0GCSqGSIb3DQEB
AQUAA4GNADCBiQKBgQClOaBLTn5vStuu8hj6cNwIvZH17n2IHLTqpuiKEcbnBYGP
fPXLZMqW3/o+EC9CUzyqWxYZp8YER/M3K1tuFrURqYR5F4ry8hrScmhFJeUUttS7
lemKu/+55z42fEufrwUYNEmcoIsFKoqUs8II+dogh8K9ngUNle0wwnK9fGOTVwID
AQABo4G4MIG1MAkGA1UdEwQCMAAwHQYDVR0OBBYEFLw88k3+v5vymD9dD3YOB0dL
Rs0DMIGIBgNVHSMEgYAwfoAUPD/DE0rVDNgIlsYs7BBmIdsC45ehW6RZMFcxCzAJ
BgNVBAYTAlVTMQ4wDAYDVQQIEwVVbnNldDEOMAwGA1UEBxMFVW5zZXQxDjAMBgNV
BAoTBVVuc2V0MRgwFgYDVQQDEw93d3cuZXhhbXBsZS5jb22CCQDq2QHw6C8jNTAN
BgkqhkiG9w0BAQUFAAOBgQCMHKqncwuYumrzIG5h53rqObyKtPeiW999AC7eog2H
tZI7t+2JN/kRcDMdb8ZUIxoCn93/3xZyIcq4wsCQ9U/UeQXV0/o66GYHlW8em4m5
Nr0CXQnGftYq65ObJjpk/InQPLuISfrrvCuOfutSMOeO2odHay0NrG7MUsYula0s
kw==
-----END CERTIFICATE-----
