Certificate:
    Data:
        Version: 3 (0x2)
        Serial Number: 1 (0x1)
        Signature Algorithm: sha1WithRSAEncryption
        Issuer: C=US, ST=CA, L=Roseville, O=Openstack, OU=Keystone, CN=localhost/emailAddress=keystone@openstack.org
        Validity
            Not Before: Oct 20 16:34:17 2011 GMT
            Not After : Oct 19 16:34:17 2012 GMT
        Subject: C=US, ST=CA, L=Roseville, O=Openstack, OU=Keystone, CN=localhost/emailAddress=keystone@openstack.org
        Subject Public Key Info:
            Public Key Algorithm: rsaEncryption
            RSA Public Key: (1024 bit)
                Modulus (1024 bit):
                    00:9e:5a:5c:be:dc:20:d4:af:36:5c:33:6d:72:44:
                    94:59:c6:a9:24:ed:fa:8b:2c:53:ab:24:7d:79:46:
                    cc:a6:45:05:b0:57:b4:0d:d6:8f:f4:d9:a5:11:64:
                    e4:78:b1:26:30:de:fb:4a:72:c8:97:e7:31:4f:55:
                    bb:5b:16:d7:22:1b:13:ca:fc:6b:04:bd:15:9c:09:
                    51:d6:f9:14:51:67:a3:42:4a:81:ce:98:0f:6e:5c:
                    ac:7f:36:be:0f:79:ad:07:81:75:a2:21:a8:5f:e5:
                    9c:22:71:4c:db:63:b6:44:29:65:22:76:6e:07:98:
                    de:be:58:3f:b2:fe:cd:27:f7
                Exponent: 65537 (0x10001)
        X509v3 extensions:
            X509v3 Basic Constraints: 
                CA:FALSE
            Netscape Comment: 
                OpenSSL Generated Certificate
            X509v3 Subject Key Identifier: 
                C1:E3:A1:36:45:3F:B5:3B:11:A1:23:A4:7E:3A:A0:F9:BC:F6:93:A3
            X509v3 Authority Key Identifier: 
                keyid:60:3F:32:16:18:52:78:C8:74:7F:45:58:55:55:A3:F6:0E:0E:46:41

    Signature Algorithm: sha1WithRSAEncryption
        06:86:d7:5d:93:11:94:ce:23:ae:74:b2:16:09:99:32:63:3d:
        d9:be:8f:99:87:43:7c:0d:27:25:5c:08:c2:d6:18:37:3c:4e:
        b9:06:51:53:a9:d7:93:da:14:a1:25:96:2b:eb:8d:81:9d:68:
        8d:ec:b8:1f:9e:09:80:25:fb:be:f8:20:5b:fc:ca:6c:3d:38:
        c7:09:36:aa:dd:f8:0c:01:35:3e:c5:c5:3b:60:24:8c:5f:c5:
        44:e7:7f:9b:ce:b6:d5:85:b7:93:e4:8a:a5:a9:90:ff:2d:09:
        56:8c:e6:17:1f:07:33:0a:46:73:b1:65:13:d8:6f:39:76:3a:
        93:87
-----BEGIN CERTIFICATE-----
MIIDEzCCAnygAwIBAgIBATANBgkqhkiG9w0BAQUFADCBkDELMAkGA1UEBhMCVVMx
CzAJBgNVBAgTAkNBMRIwEAYDVQQHEwlSb3NldmlsbGUxEjAQBgNVBAoTCU9wZW5z
dGFjazERMA8GA1UECxMIS2V5c3RvbmUxEjAQBgNVBAMTCWxvY2FsaG9zdDElMCMG
CSqGSIb3DQEJARYWa2V5c3RvbmVAb3BlbnN0YWNrLm9yZzAeFw0xMTEwMjAxNjM0
MTdaFw0xMjEwMTkxNjM0MTdaMIGQMQswCQYDVQQGEwJVUzELMAkGA1UECBMCQ0Ex
EjAQBgNVBAcTCVJvc2V2aWxsZTESMBAGA1UEChMJT3BlbnN0YWNrMREwDwYDVQQL
EwhLZXlzdG9uZTESMBAGA1UEAxMJbG9jYWxob3N0MSUwIwYJKoZIhvcNAQkBFhZr
ZXlzdG9uZUBvcGVuc3RhY2sub3JnMIGfMA0GCSqGSIb3DQEBAQUAA4GNADCBiQKB
gQCeWly+3CDUrzZcM21yRJRZxqkk7fqLLFOrJH15RsymRQWwV7QN1o/02aURZOR4
sSYw3vtKcsiX5zFPVbtbFtciGxPK/GsEvRWcCVHW+RRRZ6NCSoHOmA9uXKx/Nr4P
ea0HgXWiIahf5ZwicUzbY7ZEKWUidm4HmN6+WD+y/s0n9wIDAQABo3sweTAJBgNV
HRMEAjAAMCwGCWCGSAGG+EIBDQQfFh1PcGVuU1NMIEdlbmVyYXRlZCBDZXJ0aWZp
Y2F0ZTAdBgNVHQ4EFgQUweOhNkU/tTsRoSOkfjqg+bz2k6MwHwYDVR0jBBgwFoAU
YD8yFhhSeMh0f0VYVVWj9g4ORkEwDQYJKoZIhvcNAQEFBQADgYEABobXXZMRlM4j
rnSyFgmZMmM92b6PmYdDfA0nJVwIwtYYNzxOuQZRU6nXk9oUoSWWK+uNgZ1ojey4
H54JgCX7vvggW/zKbD04xwk2qt34DAE1PsXFO2AkjF/FROd/m8621YW3k+SKpamQ
/y0JVozmFx8HMwpGc7FlE9hvOXY6k4c=
-----END CERTIFICATE-----
