Certificate:
    Data:
        Version: 3 (0x2)
        Serial Number: 1 (0x1)
        Signature Algorithm: sha1WithRSAEncryption
        Issuer: C=US, ST=CA, L=Roseville, O=Openstack, OU=Keystone, CN=localhost/emailAddress=keystone@openstack.org
        Validity
            Not Before: Oct 20 17:22:02 2011 GMT
            Not After : Oct 19 17:22:02 2012 GMT
        Subject: C=US, ST=CA, O=Openstack, OU=Middleware, CN=localhost/emailAddress=middleware@openstack.org
        Subject Public Key Info:
            Public Key Algorithm: rsaEncryption
            RSA Public Key: (1024 bit)
                Modulus (1024 bit):
                    00:cb:8d:ff:0a:f8:1f:da:0b:65:d9:15:86:e7:4a:
                    89:07:81:26:7a:2e:ef:67:30:bb:5b:88:3e:73:31:
                    0e:c9:d9:eb:84:55:7c:57:1b:07:8a:29:7f:41:ed:
                    1a:47:b2:c4:74:3c:dc:52:81:81:ba:6c:43:b8:44:
                    bd:83:20:28:4a:82:03:34:f2:1e:88:89:1c:f3:d6:
                    ef:02:27:9f:7b:4b:dc:ed:50:91:7a:13:a0:8f:5f:
                    44:10:a6:17:01:6f:7d:7a:3a:a2:1a:28:4e:6e:c5:
                    b6:06:0b:ba:5c:c9:e9:15:39:95:54:63:bb:40:90:
                    5d:5d:76:f6:ae:ed:ee:ed:85
                Exponent: 65537 (0x10001)
        X509v3 extensions:
            X509v3 Basic Constraints: 
                CA:FALSE
            Netscape Comment: 
                OpenSSL Generated Certificate
            X509v3 Subject Key Identifier: 
                5A:34:DE:19:11:FF:77:19:2E:E5:6C:36:FA:42:17:6B:46:AF:6A:61
            X509v3 Authority Key Identifier: 
                keyid:60:3F:32:16:18:52:78:C8:74:7F:45:58:55:55:A3:F6:0E:0E:46:41

    Signature Algorithm: sha1WithRSAEncryption
        a2:1b:e0:d3:e5:c5:35:ad:18:cb:79:a4:fc:f3:d6:7b:53:1e:
        dd:28:95:e0:6c:b0:db:fe:aa:30:04:19:c8:99:7a:eb:cb:ed:
        dd:74:29:ad:f8:89:6a:ed:d0:10:35:b3:62:36:a2:b0:cc:9f:
        86:e8:96:fd:d7:1b:5e:2c:64:b5:5d:f3:bf:1a:1a:07:8b:01:
        1f:5f:09:c3:e1:62:cd:30:35:1a:08:e1:cd:71:be:8c:87:de:
        f6:7d:40:1b:c6:5f:f0:80:a0:68:55:01:00:74:86:08:52:7e:
        c7:fd:62:f9:e3:d0:f8:0b:b0:64:d9:20:70:80:ec:95:11:74:
        fb:0b
-----BEGIN CERTIFICATE-----
MIIDAzCCAmygAwIBAgIBATANBgkqhkiG9w0BAQUFADCBkDELMAkGA1UEBhMCVVMx
CzAJBgNVBAgTAkNBMRIwEAYDVQQHEwlSb3NldmlsbGUxEjAQBgNVBAoTCU9wZW5z
dGFjazERMA8GA1UECxMIS2V5c3RvbmUxEjAQBgNVBAMTCWxvY2FsaG9zdDElMCMG
CSqGSIb3DQEJARYWa2V5c3RvbmVAb3BlbnN0YWNrLm9yZzAeFw0xMTEwMjAxNzIy
MDJaFw0xMjEwMTkxNzIyMDJaMIGAMQswCQYDVQQGEwJVUzELMAkGA1UECBMCQ0Ex
EjAQBgNVBAoTCU9wZW5zdGFjazETMBEGA1UECxMKTWlkZGxld2FyZTESMBAGA1UE
AxMJbG9jYWxob3N0MScwJQYJKoZIhvcNAQkBFhhtaWRkbGV3YXJlQG9wZW5zdGFj
ay5vcmcwgZ8wDQYJKoZIhvcNAQEBBQADgY0AMIGJAoGBAMuN/wr4H9oLZdkVhudK
iQeBJnou72cwu1uIPnMxDsnZ64RVfFcbB4opf0HtGkeyxHQ83FKBgbpsQ7hEvYMg
KEqCAzTyHoiJHPPW7wInn3tL3O1QkXoToI9fRBCmFwFvfXo6ohooTm7FtgYLulzJ
6RU5lVRju0CQXV129q7t7u2FAgMBAAGjezB5MAkGA1UdEwQCMAAwLAYJYIZIAYb4
QgENBB8WHU9wZW5TU0wgR2VuZXJhdGVkIENlcnRpZmljYXRlMB0GA1UdDgQWBBRa
NN4ZEf93GS7lbDb6QhdrRq9qYTAfBgNVHSMEGDAWgBRgPzIWGFJ4yHR/RVhVVaP2
Dg5GQTANBgkqhkiG9w0BAQUFAAOBgQCiG+DT5cU1rRjLeaT889Z7Ux7dKJXgbLDb
/qowBBnImXrry+3ddCmt+Ilq7dAQNbNiNqKwzJ+G6Jb91xteLGS1XfO/GhoHiwEf
XwnD4WLNMDUaCOHNcb6Mh972fUAbxl/wgKBoVQEAdIYIUn7H/WL549D4C7Bk2SBw
gOyVEXT7Cw==
-----END CERTIFICATE-----
-----BEGIN RSA PRIVATE KEY-----
MIICXAIBAAKBgQDLjf8K+B/aC2XZFYbnSokHgSZ6Lu9nMLtbiD5zMQ7J2euEVXxX
GweKKX9B7RpHssR0PNxSgYG6bEO4RL2DIChKggM08h6IiRzz1u8CJ597S9ztUJF6
E6CPX0QQphcBb316OqIaKE5uxbYGC7pcyekVOZVUY7tAkF1ddvau7e7thQIDAQAB
AoGAITSpzV1KvOQtGiuz1RlIn0vHPhlX/opplfX00g/HrM/65pyXaxJCuZwpYVTP
e7DC8X9YJbFwuzucFHxKOhDN4YbnW145bgfHbI9KLXtZiDvXvHg2MGKjpL/S3Lp3
zzWBo8gknmFGLK41WbYCCWKcvikEb3/KowcooznY5X5BjWECQQD6NC9Bi2EUUyPR
B2ZT3C3h2Hj53yqLkJzP0PaxTC+j7rsycy5r7UiOK8+8aC1T9EsaJrmEKlYBmlbd
lVdhohpNAkEA0EUphaVGURlNmXZgYdSZ1rrpJTvKbFtXmUCowi7Ml2h/oTuHDFHf
i4P8//79YB1uJ4Ll9edjJsZqtAErUTnMGQJBAJcKp7hutqU5Z3bJe8mGMqCTOLzH
LvzfyPpfkH0Jm/zfolxbUhvPO6yv4BFB5pM295uK4xVZJWCEVoofnIeQ/0UCQHuK
ex3esv5KTyCX+oYtkW+xgbjnZaSu7iBnHXPKROwPPZ4LbIlfS4Y7rejAfdX0vzHK
0NP0BHmsuwC5rNNKwIkCQBZqTnLVcisz1FRM2g/OKfWMx+lhVf5fIng+jUEJCdNE
fGjCUu4BRs+nXq6EzoijLvtrmRmFL7VYAKdabSVeLRc=
-----END RSA PRIVATE KEY-----
